Certificate:
    Data:
        Version: 3 (0x2)
        Serial Number: 2 (0x2)
        Signature Algorithm: sha256WithRSAEncryption
        Issuer: O=Cockroach, CN=Cockroach CA
        Validity
            Not Before: Jun 13 21:50:39 2025 GMT
            Not After : Jun 13 21:50:39 2026 GMT
        Subject: CN=testuser
        Subject Public Key Info:
            Public Key Algorithm: rsaEncryption
                Public-Key: (2048 bit)
                Modulus:
                    00:9c:d7:3f:5d:85:2e:a4:dd:e5:f9:34:47:61:64:
                    1b:b1:0f:2c:2c:61:de:74:04:26:85:3b:a3:9d:fb:
                    6d:d5:34:34:47:1f:77:6b:c3:e2:71:e8:09:a4:7d:
                    22:5a:0b:5b:b2:12:36:82:4b:b7:7c:da:e2:6b:cf:
                    3e:dc:7e:d8:a5:b8:d1:46:85:a3:d3:d3:a1:08:b6:
                    5b:04:8a:23:00:c5:79:bc:27:63:d6:9b:06:a1:c0:
                    01:ad:ff:0e:88:7e:a7:cd:a3:0f:d7:6c:4a:e1:f4:
                    47:c7:75:e1:84:c2:2a:3b:53:2b:60:88:3d:0e:23:
                    6c:fd:65:ad:bd:5c:35:2b:8b:cb:78:74:f9:2f:f9:
                    3d:2f:d7:c7:99:5a:8e:8c:f5:42:5b:bb:24:da:54:
                    d4:e7:3f:6a:bc:30:9b:1b:60:b2:b4:83:1d:42:f1:
                    39:76:83:d9:b6:c5:ad:fe:e7:81:e9:c2:02:d3:b3:
                    b4:a0:f8:9c:e3:58:0e:b7:86:33:a6:45:70:75:c6:
                    f3:1c:c9:ea:b6:d4:4f:6c:15:ef:d5:69:47:ae:77:
                    b9:f9:e1:ce:fe:52:33:d9:81:d0:85:35:79:c5:b4:
                    bb:ab:49:28:3d:1c:51:d3:85:0c:e6:0f:18:30:95:
                    04:a9:26:d7:39:d3:bd:71:8f:f8:5b:8b:eb:49:17:
                    02:39
                Exponent: 65537 (0x10001)
        X509v3 extensions:
            X509v3 Key Usage: critical
                Digital Signature, Key Encipherment
            X509v3 Extended Key Usage: 
                TLS Web Client Authentication
            X509v3 Subject Key Identifier: 
                D4:1F:9C:74:B1:98:9F:82:E6:90:A1:4F:B2:B3:03:76:C8:CB:BB:FE
            X509v3 Authority Key Identifier: 
                DD:FC:04:D8:CE:6E:09:23:FB:68:4F:AB:AA:6E:E6:5C:40:A6:48:B8
    Signature Algorithm: sha256WithRSAEncryption
    Signature Value:
        88:e1:e0:02:95:30:cb:56:f0:e7:4c:30:88:74:4c:41:3e:e0:
        22:6e:28:cb:53:6d:da:04:84:49:01:4d:03:ec:7b:41:e0:75:
        c8:73:00:d3:cc:a4:8f:82:29:8d:a0:8a:89:f2:62:ba:2f:ae:
        87:dd:7c:be:95:b4:d5:94:52:b1:06:91:b6:37:60:24:5e:80:
        82:be:a1:62:bb:c2:9a:80:c5:8d:f9:fa:9c:e3:32:0b:6b:59:
        18:42:89:a0:33:66:49:66:ab:f9:87:8d:98:39:09:b9:41:39:
        55:39:ce:00:76:e7:99:03:0c:d6:be:90:a2:7a:d7:f1:bd:18:
        6e:0a:e5:38:7e:37:28:85:cb:62:a0:b9:3f:b7:91:8e:08:2a:
        18:3f:d5:57:e2:dc:c8:63:3c:a3:6d:b8:37:bf:d3:85:8a:d3:
        b6:f1:e6:17:4f:87:86:ab:cb:00:3a:7b:33:04:5a:45:46:76:
        03:dd:70:59:5a:e6:06:0f:17:2b:83:f2:dd:5a:b8:f2:cd:50:
        e0:b5:57:e4:2c:b7:46:a8:60:66:bd:11:5c:35:b2:ee:ef:37:
        d2:7c:30:4d:da:cc:bb:8b:9c:64:e6:28:31:9b:58:bb:e6:78:
        41:c2:ed:a6:89:c2:0f:d2:78:1e:48:09:6d:e1:c4:87:0e:ef:
        61:62:6d:73
-----BEGIN CERTIFICATE-----
MIIDIDCCAgigAwIBAgIBAjANBgkqhkiG9w0BAQsFADArMRIwEAYDVQQKEwlDb2Nr
cm9hY2gxFTATBgNVBAMTDENvY2tyb2FjaCBDQTAeFw0yNTA2MTMyMTUwMzlaFw0y
NjA2MTMyMTUwMzlaMBMxETAPBgNVBAMMCHRlc3R1c2VyMIIBIjANBgkqhkiG9w0B
AQEFAAOCAQ8AMIIBCgKCAQEAnNc/XYUupN3l+TRHYWQbsQ8sLGHedAQmhTujnftt
1TQ0Rx93a8PicegJpH0iWgtbshI2gku3fNria88+3H7YpbjRRoWj09OhCLZbBIoj
AMV5vCdj1psGocABrf8OiH6nzaMP12xK4fRHx3XhhMIqO1MrYIg9DiNs/WWtvVw1
K4vLeHT5L/k9L9fHmVqOjPVCW7sk2lTU5z9qvDCbG2CytIMdQvE5doPZtsWt/ueB
6cIC07O0oPic41gOt4YzpkVwdcbzHMnqttRPbBXv1WlHrne5+eHO/lIz2YHQhTV5
xbS7q0koPRxR04UM5g8YMJUEqSbXOdO9cY/4W4vrSRcCOQIDAQABo2cwZTAOBgNV
HQ8BAf8EBAMCBaAwEwYDVR0lBAwwCgYIKwYBBQUHAwIwHQYDVR0OBBYEFNQfnHSx
mJ+C5pChT7KzA3bIy7v+MB8GA1UdIwQYMBaAFN38BNjObgkj+2hPq6pu5lxApki4
MA0GCSqGSIb3DQEBCwUAA4IBAQCI4eAClTDLVvDnTDCIdExBPuAibijLU23aBIRJ
AU0D7HtB4HXIcwDTzKSPgimNoIqJ8mK6L66H3Xy+lbTVlFKxBpG2N2AkXoCCvqFi
u8KagMWN+fqc4zILa1kYQomgM2ZJZqv5h42YOQm5QTlVOc4AdueZAwzWvpCietfx
vRhuCuU4fjcohctioLk/t5GOCCoYP9VX4tzIYzyjbbg3v9OFitO28eYXT4eGq8sA
OnszBFpFRnYD3XBZWuYGDxcrg/LdWrjyzVDgtVfkLLdGqGBmvRFcNbLu7zfSfDBN
2sy7i5xk5igxm1i75nhBwu2micIP0ngeSAlt4cSHDu9hYm1z
-----END CERTIFICATE-----
