Certificate:
    Data:
        Version: 3 (0x2)
        Serial Number: 3 (0x3)
        Signature Algorithm: sha256WithRSAEncryption
        Issuer: O=Cockroach, CN=Cockroach CA
        Validity
            Not Before: Jun 17 22:15:34 2025 GMT
            Not After : Jun 17 22:15:34 2026 GMT
        Subject: CN=testuser
        Subject Public Key Info:
            Public Key Algorithm: rsaEncryption
                Public-Key: (2048 bit)
                Modulus:
                    00:a8:9a:bd:32:08:b2:38:dd:27:28:7d:f0:14:6f:
                    be:18:4f:d6:9c:19:ec:29:f4:e7:6c:2a:33:b6:44:
                    5b:04:10:25:e1:7f:bf:82:06:15:56:a5:ee:3e:f9:
                    a5:f5:76:e9:42:69:ab:1f:04:2d:1f:af:24:c6:ae:
                    53:e3:1b:41:ca:2f:45:21:26:3b:6e:42:00:38:e2:
                    56:ed:9e:98:5d:89:c3:39:ad:ab:05:bb:0b:71:1c:
                    f7:6b:41:b7:a6:47:bd:c3:1f:29:4d:33:17:bf:f9:
                    3a:d9:a4:73:80:53:3a:fb:3c:ad:e8:32:9a:e7:fd:
                    59:29:34:79:00:23:f4:2d:5f:68:b6:d8:ec:80:e6:
                    1a:ac:2a:88:62:2d:ac:c4:c7:5a:f7:04:f0:76:91:
                    81:8d:92:4d:d8:8c:72:04:ac:c0:7f:24:1a:6b:88:
                    fe:7a:40:cf:40:63:ca:58:90:54:ae:12:73:72:f5:
                    d8:9b:2e:3e:2f:42:a6:0f:37:89:f3:f7:31:20:e3:
                    f9:ff:c9:36:21:dd:89:c7:53:2a:c8:8e:e9:f0:98:
                    77:1f:fc:81:82:79:c3:8b:dd:b6:1f:73:fc:7c:ba:
                    10:aa:50:c5:bc:0c:12:3c:e3:5f:ec:60:91:36:d1:
                    86:f0:2b:50:b8:3a:94:b2:cd:46:28:d9:43:0e:44:
                    d8:dd
                Exponent: 65537 (0x10001)
        X509v3 extensions:
            X509v3 Key Usage: critical
                Digital Signature, Key Encipherment
            X509v3 Extended Key Usage: 
                TLS Web Client Authentication
            X509v3 Subject Alternative Name: 
                DNS:testuser
            X509v3 Subject Key Identifier: 
                EA:F9:38:36:65:0C:ED:23:51:4A:01:69:22:1F:C9:F8:E9:49:7B:A4
            X509v3 Authority Key Identifier: 
                95:08:BB:F0:D5:A6:E3:13:F9:E9:63:CD:74:51:E7:20:F3:2F:0C:87
    Signature Algorithm: sha256WithRSAEncryption
    Signature Value:
        10:11:1a:5e:59:97:1e:91:87:c9:3d:ef:60:bb:25:7c:a6:7c:
        ac:2e:31:7b:8f:e9:c0:7c:af:0c:16:cc:64:5f:df:46:c1:8b:
        6d:ca:99:bd:11:f4:11:4e:c0:20:13:53:fc:7e:49:72:5d:c7:
        6b:16:dc:72:0f:52:5d:b5:58:ea:5b:51:5d:03:50:44:37:e8:
        59:60:69:8b:d8:ce:a3:e4:fa:ad:ec:6d:03:57:2d:ff:af:15:
        f9:91:8e:05:36:17:ad:ff:8a:65:ea:d5:d8:df:50:c1:b6:bc:
        4c:d6:89:9d:bb:f9:79:2b:a4:b9:7f:cc:3f:fd:0c:d9:88:ba:
        74:89:1f:47:05:fb:97:91:d1:f7:8a:98:89:ce:d7:34:d8:41:
        12:a6:ce:ad:2b:cd:c4:68:47:e5:3d:58:62:6e:a2:fe:3a:e8:
        6f:29:a6:3b:9c:3c:f4:84:5a:65:73:51:39:2e:d7:22:c0:ed:
        04:cf:83:6b:57:74:5d:fd:90:6a:d9:23:fc:97:9d:d3:7f:7f:
        89:bd:57:14:c1:70:61:e3:92:e7:a1:9f:a1:1c:32:f3:10:69:
        c8:67:be:60:53:0e:2f:40:ba:bc:b6:cb:9b:68:a0:67:42:32:
        01:85:98:88:74:be:79:a1:66:51:23:d1:6a:25:e2:3e:58:28:
        86:5f:37:31
-----BEGIN CERTIFICATE-----
MIIDNTCCAh2gAwIBAgIBAzANBgkqhkiG9w0BAQsFADArMRIwEAYDVQQKEwlDb2Nr
cm9hY2gxFTATBgNVBAMTDENvY2tyb2FjaCBDQTAeFw0yNTA2MTcyMjE1MzRaFw0y
NjA2MTcyMjE1MzRaMBMxETAPBgNVBAMMCHRlc3R1c2VyMIIBIjANBgkqhkiG9w0B
AQEFAAOCAQ8AMIIBCgKCAQEAqJq9MgiyON0nKH3wFG++GE/WnBnsKfTnbCoztkRb
BBAl4X+/ggYVVqXuPvml9XbpQmmrHwQtH68kxq5T4xtByi9FISY7bkIAOOJW7Z6Y
XYnDOa2rBbsLcRz3a0G3pke9wx8pTTMXv/k62aRzgFM6+zyt6DKa5/1ZKTR5ACP0
LV9ottjsgOYarCqIYi2sxMda9wTwdpGBjZJN2IxyBKzAfyQaa4j+ekDPQGPKWJBU
rhJzcvXYmy4+L0KmDzeJ8/cxIOP5/8k2Id2Jx1MqyI7p8Jh3H/yBgnnDi922H3P8
fLoQqlDFvAwSPONf7GCRNtGG8CtQuDqUss1GKNlDDkTY3QIDAQABo3wwejAOBgNV
HQ8BAf8EBAMCBaAwEwYDVR0lBAwwCgYIKwYBBQUHAwIwEwYDVR0RBAwwCoIIdGVz
dHVzZXIwHQYDVR0OBBYEFOr5ODZlDO0jUUoBaSIfyfjpSXukMB8GA1UdIwQYMBaA
FJUIu/DVpuMT+eljzXRR5yDzLwyHMA0GCSqGSIb3DQEBCwUAA4IBAQAQERpeWZce
kYfJPe9guyV8pnysLjF7j+nAfK8MFsxkX99GwYttypm9EfQRTsAgE1P8fklyXcdr
FtxyD1JdtVjqW1FdA1BEN+hZYGmL2M6j5Pqt7G0DVy3/rxX5kY4FNhet/4pl6tXY
31DBtrxM1omdu/l5K6S5f8w//QzZiLp0iR9HBfuXkdH3ipiJztc02EESps6tK83E
aEflPVhibqL+OuhvKaY7nDz0hFplc1E5LtciwO0Ez4NrV3Rd/ZBq2SP8l53Tf3+J
vVcUwXBh45LnoZ+hHDLzEGnIZ75gUw4vQLq8tsubaKBnQjIBhZiIdL55oWZRI9Fq
JeI+WCiGXzcx
-----END CERTIFICATE-----
