Certificate:
    Data:
        Version: 3 (0x2)
        Serial Number: 1 (0x1)
        Signature Algorithm: sha256WithRSAEncryption
        Issuer: O=Cockroach, CN=Cockroach CA
        Validity
            Not Before: Jun 17 23:29:56 2025 GMT
            Not After : Jun 17 23:29:56 2026 GMT
        Subject: O=Internet Widgits Pty Ltd
        Subject Public Key Info:
            Public Key Algorithm: rsaEncryption
                Public-Key: (2048 bit)
                Modulus:
                    00:a9:3f:7f:6c:93:69:8e:2f:44:59:8c:9e:50:34:
                    29:a1:ee:f9:41:50:9a:9a:ac:cc:07:1a:35:71:81:
                    e3:df:9f:69:bb:b2:5e:94:1b:80:f2:cf:cf:d9:b8:
                    09:84:a8:15:a3:e7:65:0b:ef:1b:78:7c:f9:cd:6a:
                    12:2c:11:65:34:8d:88:72:d0:03:26:47:45:b1:7d:
                    aa:b3:d3:c2:05:9f:6c:12:79:4c:57:a5:ec:f7:a9:
                    11:df:8d:58:e6:39:53:2a:00:72:4a:ec:22:31:17:
                    51:c2:a9:cd:90:c0:04:ee:82:e6:cf:4c:50:5e:9b:
                    94:84:2c:89:db:7c:95:cb:8d:4c:a0:a4:8f:57:a2:
                    1a:3e:5e:3e:59:58:11:3d:98:e8:7c:92:50:d8:53:
                    1d:c9:4d:54:1a:45:b9:51:0e:74:48:f4:ac:3b:60:
                    39:29:6a:8d:bd:4b:20:e2:6f:4b:a4:1f:a5:c8:11:
                    1d:b0:92:56:81:72:55:33:d1:1f:84:0b:0b:bd:a6:
                    a6:83:e9:50:43:ef:ae:83:58:ef:c6:2c:e9:18:d6:
                    b9:77:90:c7:7f:18:30:3c:36:f4:58:0a:14:54:36:
                    0d:8a:4e:59:16:0e:50:6b:b8:0a:86:d7:4c:1a:e6:
                    28:61:88:32:f7:35:36:4f:99:98:a5:ac:c7:ca:8c:
                    a3:cb
                Exponent: 65537 (0x10001)
        X509v3 extensions:
            X509v3 Key Usage: critical
                Digital Signature, Key Encipherment
            X509v3 Extended Key Usage: 
                TLS Web Client Authentication
            X509v3 Subject Alternative Name: 
                DNS:testuser
            X509v3 Subject Key Identifier: 
                EE:9F:25:22:82:D6:C1:87:6A:CD:FB:F0:58:33:18:4D:08:4F:7D:73
            X509v3 Authority Key Identifier: 
                AB:C4:D2:4B:4C:B4:88:D7:A3:0B:1B:92:41:C0:F3:03:5D:AB:8D:60
    Signature Algorithm: sha256WithRSAEncryption
    Signature Value:
        7d:78:b8:17:f8:76:f2:58:e1:fb:7c:41:53:1c:67:d2:2a:09:
        b1:41:bb:13:1b:6f:88:89:b6:c0:6c:c1:80:75:e1:f6:57:82:
        66:db:1b:29:fb:0c:a7:40:85:52:b3:6d:50:58:9f:53:08:ef:
        37:f0:b4:71:00:f6:d5:0a:ad:63:fd:03:a5:75:ca:22:75:3b:
        dc:37:d2:30:30:64:8c:0b:17:ef:9a:e0:2e:38:08:d7:c4:c1:
        15:0f:0f:cc:54:98:72:15:e5:82:d7:6a:7d:2e:b3:3d:d3:1b:
        88:6e:17:7a:af:26:4f:24:07:3c:09:58:3d:5c:b5:4f:5f:ab:
        08:40:6b:e3:b5:44:68:66:2e:67:15:3c:39:b6:50:94:ea:7a:
        72:56:e7:bc:37:5f:63:dc:31:b9:cc:cf:f3:b9:4e:9f:ff:71:
        c8:00:0e:23:71:23:3b:ba:21:df:b0:ce:cc:36:ac:1a:42:22:
        f7:b5:b3:6f:7e:b7:16:c2:9c:62:32:92:5d:85:a1:24:5e:ed:
        3e:a0:2c:07:ee:3b:7b:f6:47:bf:8a:e2:49:5c:35:1c:40:b1:
        11:af:ac:93:75:64:95:90:0d:46:a7:fe:b1:05:f2:e8:70:b9:
        fe:e7:58:ad:0e:2c:0e:dc:b6:61:53:c4:0c:54:fa:1c:3f:2a:
        92:20:9d:7e
-----BEGIN CERTIFICATE-----
MIIDRTCCAi2gAwIBAgIBATANBgkqhkiG9w0BAQsFADArMRIwEAYDVQQKEwlDb2Nr
cm9hY2gxFTATBgNVBAMTDENvY2tyb2FjaCBDQTAeFw0yNTA2MTcyMzI5NTZaFw0y
NjA2MTcyMzI5NTZaMCMxITAfBgNVBAoMGEludGVybmV0IFdpZGdpdHMgUHR5IEx0
ZDCCASIwDQYJKoZIhvcNAQEBBQADggEPADCCAQoCggEBAKk/f2yTaY4vRFmMnlA0
KaHu+UFQmpqszAcaNXGB49+fabuyXpQbgPLPz9m4CYSoFaPnZQvvG3h8+c1qEiwR
ZTSNiHLQAyZHRbF9qrPTwgWfbBJ5TFel7PepEd+NWOY5UyoAckrsIjEXUcKpzZDA
BO6C5s9MUF6blIQsidt8lcuNTKCkj1eiGj5ePllYET2Y6HySUNhTHclNVBpFuVEO
dEj0rDtgOSlqjb1LIOJvS6QfpcgRHbCSVoFyVTPRH4QLC72mpoPpUEPvroNY78Ys
6RjWuXeQx38YMDw29FgKFFQ2DYpOWRYOUGu4CobXTBrmKGGIMvc1Nk+ZmKWsx8qM
o8sCAwEAAaN8MHowDgYDVR0PAQH/BAQDAgWgMBMGA1UdJQQMMAoGCCsGAQUFBwMC
MBMGA1UdEQQMMAqCCHRlc3R1c2VyMB0GA1UdDgQWBBTunyUigtbBh2rN+/BYMxhN
CE99czAfBgNVHSMEGDAWgBSrxNJLTLSI16MLG5JBwPMDXauNYDANBgkqhkiG9w0B
AQsFAAOCAQEAfXi4F/h28ljh+3xBUxxn0ioJsUG7ExtviIm2wGzBgHXh9leCZtsb
KfsMp0CFUrNtUFifUwjvN/C0cQD21QqtY/0DpXXKInU73DfSMDBkjAsX75rgLjgI
18TBFQ8PzFSYchXlgtdqfS6zPdMbiG4Xeq8mTyQHPAlYPVy1T1+rCEBr47VEaGYu
ZxU8ObZQlOp6clbnvDdfY9wxuczP87lOn/9xyAAOI3EjO7oh37DOzDasGkIi97Wz
b363FsKcYjKSXYWhJF7tPqAsB+47e/ZHv4riSVw1HECxEa+sk3VklZANRqf+sQXy
6HC5/udYrQ4sDty2YVPEDFT6HD8qkiCdfg==
-----END CERTIFICATE-----
