Certificate:
    Data:
        Version: 3 (0x2)
        Serial Number: 2 (0x2)
        Signature Algorithm: sha256WithRSAEncryption
        Issuer: O=Cockroach, CN=Cockroach CA
        Validity
            Not Before: Jun 17 23:29:56 2025 GMT
            Not After : Jun 17 23:29:56 2026 GMT
        Subject: CN=testuser
        Subject Public Key Info:
            Public Key Algorithm: rsaEncryption
                Public-Key: (2048 bit)
                Modulus:
                    00:b4:0e:20:d3:de:d3:bb:48:7a:6e:03:e7:b9:8f:
                    d4:a0:ca:a4:a4:40:7e:6b:0f:63:af:3e:b4:48:1d:
                    99:7d:3d:41:a4:e1:f8:17:ae:11:ff:79:17:46:23:
                    ce:96:d1:dc:c5:8e:72:1d:6b:f8:5a:5c:3a:83:0a:
                    96:11:22:cc:1a:ee:9b:b6:4e:f6:4f:9a:49:68:2c:
                    41:69:8b:9d:e3:da:db:d6:25:c2:00:bd:3b:00:7b:
                    3f:7a:7e:48:00:d0:ad:1c:c6:67:cd:f7:c3:5e:c4:
                    e2:15:50:db:02:df:1e:82:1d:3c:da:ee:ab:6c:58:
                    21:99:ee:53:11:f5:41:4c:26:0f:e4:10:44:bf:e8:
                    de:00:08:58:0a:61:3f:f2:72:95:1c:e2:56:5b:b6:
                    f6:d2:a3:43:c0:7d:2b:f7:ad:db:95:cf:76:af:be:
                    39:ce:8e:9f:b3:a5:9b:52:07:1c:ae:e3:bc:4f:49:
                    cb:89:ee:0c:53:0d:9d:23:80:ea:4d:07:cb:d8:56:
                    eb:c9:77:e3:2e:73:1d:55:df:b3:fc:25:53:ff:90:
                    40:95:bd:bf:68:e7:a1:fb:44:27:65:f8:34:6b:33:
                    21:6f:7a:92:18:4e:63:8a:74:22:c6:33:ec:a7:61:
                    4c:42:24:36:73:01:9b:c6:47:59:42:1e:35:ac:aa:
                    3e:6f
                Exponent: 65537 (0x10001)
        X509v3 extensions:
            X509v3 Key Usage: critical
                Digital Signature, Key Encipherment
            X509v3 Extended Key Usage: 
                TLS Web Client Authentication
            X509v3 Subject Key Identifier: 
                C8:B5:7E:FD:EF:A8:6D:1C:C0:83:AD:94:66:CD:CA:15:CC:05:C7:4D
            X509v3 Authority Key Identifier: 
                AB:C4:D2:4B:4C:B4:88:D7:A3:0B:1B:92:41:C0:F3:03:5D:AB:8D:60
    Signature Algorithm: sha256WithRSAEncryption
    Signature Value:
        a1:5b:10:b1:51:15:0e:93:da:e1:08:1a:1f:45:c1:84:26:08:
        01:ae:6b:74:53:47:d1:f0:6c:b9:69:1d:55:4f:e8:47:a1:61:
        ee:11:14:76:b0:d5:ce:6a:13:a8:69:ac:ad:61:b8:aa:0b:f0:
        41:b9:5e:91:e9:9e:84:c7:9a:28:b8:dc:3b:49:d4:c0:1d:74:
        a4:67:d5:ca:b2:36:a0:8e:1c:b5:aa:34:15:56:0d:08:73:4f:
        51:2b:db:73:5f:c7:de:f1:40:34:f1:29:22:55:12:d4:be:67:
        f1:05:34:13:10:e4:80:27:1c:60:75:be:9c:b5:41:f7:d9:7e:
        87:0d:a1:91:ef:d7:ec:f9:1b:33:10:a9:16:8c:21:c0:04:50:
        75:d5:62:fd:63:fe:e3:d3:81:17:a1:69:5b:4e:ba:ed:cc:75:
        01:90:f1:a3:98:bf:59:66:db:5e:c9:8e:19:e2:8a:00:3f:3e:
        4e:d3:a0:37:cd:fb:b0:bc:24:16:24:b9:c3:66:c9:ee:e4:25:
        cb:be:a3:e2:53:aa:16:12:f4:37:c6:83:ba:71:34:69:3d:a7:
        05:b1:e8:70:6c:03:e5:88:bf:21:72:24:86:f0:dd:f8:43:88:
        1c:43:b3:66:da:42:e3:04:1d:5e:4c:54:7b:76:e6:17:f2:60:
        9f:e2:9b:09
-----BEGIN CERTIFICATE-----
MIIDIDCCAgigAwIBAgIBAjANBgkqhkiG9w0BAQsFADArMRIwEAYDVQQKEwlDb2Nr
cm9hY2gxFTATBgNVBAMTDENvY2tyb2FjaCBDQTAeFw0yNTA2MTcyMzI5NTZaFw0y
NjA2MTcyMzI5NTZaMBMxETAPBgNVBAMMCHRlc3R1c2VyMIIBIjANBgkqhkiG9w0B
AQEFAAOCAQ8AMIIBCgKCAQEAtA4g097Tu0h6bgPnuY/UoMqkpEB+aw9jrz60SB2Z
fT1BpOH4F64R/3kXRiPOltHcxY5yHWv4Wlw6gwqWESLMGu6btk72T5pJaCxBaYud
49rb1iXCAL07AHs/en5IANCtHMZnzffDXsTiFVDbAt8egh082u6rbFghme5TEfVB
TCYP5BBEv+jeAAhYCmE/8nKVHOJWW7b20qNDwH0r963blc92r745zo6fs6WbUgcc
ruO8T0nLie4MUw2dI4DqTQfL2FbryXfjLnMdVd+z/CVT/5BAlb2/aOeh+0QnZfg0
azMhb3qSGE5jinQixjPsp2FMQiQ2cwGbxkdZQh41rKo+bwIDAQABo2cwZTAOBgNV
HQ8BAf8EBAMCBaAwEwYDVR0lBAwwCgYIKwYBBQUHAwIwHQYDVR0OBBYEFMi1fv3v
qG0cwIOtlGbNyhXMBcdNMB8GA1UdIwQYMBaAFKvE0ktMtIjXowsbkkHA8wNdq41g
MA0GCSqGSIb3DQEBCwUAA4IBAQChWxCxURUOk9rhCBofRcGEJggBrmt0U0fR8Gy5
aR1VT+hHoWHuERR2sNXOahOoaaytYbiqC/BBuV6R6Z6Ex5oouNw7SdTAHXSkZ9XK
sjagjhy1qjQVVg0Ic09RK9tzX8fe8UA08SkiVRLUvmfxBTQTEOSAJxxgdb6ctUH3
2X6HDaGR79fs+RszEKkWjCHABFB11WL9Y/7j04EXoWlbTrrtzHUBkPGjmL9ZZtte
yY4Z4ooAPz5O06A3zfuwvCQWJLnDZsnu5CXLvqPiU6oWEvQ3xoO6cTRpPacFsehw
bAPliL8hciSG8N34Q4gcQ7Nm2kLjBB1eTFR7duYX8mCf4psJ
-----END CERTIFICATE-----
