Certificate:
    Data:
        Version: 3 (0x2)
        Serial Number: 1 (0x1)
        Signature Algorithm: sha256WithRSAEncryption
        Issuer: O=Cockroach, CN=Cockroach CA
        Validity
            Not Before: Aug  6 15:14:53 2025 GMT
            Not After : Aug  6 15:14:53 2026 GMT
        Subject: O=Internet Widgits Pty Ltd
        Subject Public Key Info:
            Public Key Algorithm: rsaEncryption
                Public-Key: (2048 bit)
                Modulus:
                    00:d1:6a:16:49:29:95:db:49:a1:95:07:29:44:92:
                    ea:5d:14:ec:5c:ea:6e:3c:33:54:17:7e:bf:7d:81:
                    55:50:17:94:f6:f4:57:4f:50:02:f4:a2:40:d5:93:
                    b3:51:a2:b6:54:1b:14:de:ba:b7:bc:8b:ec:ea:d8:
                    0b:5b:40:29:e6:01:4a:63:a3:28:26:ed:55:ca:36:
                    74:5d:8d:fc:f0:fc:4c:43:03:8f:db:4d:f9:2d:4f:
                    65:af:76:ad:73:2a:28:b8:0e:3a:27:b5:8a:1d:94:
                    2f:77:76:08:66:8a:39:6b:12:24:45:8a:2c:26:76:
                    24:94:fd:0d:77:73:dd:ac:94:68:bd:6a:c5:41:14:
                    13:42:4a:f8:0a:a0:bf:aa:cc:9e:5f:ae:ce:a5:df:
                    9d:d3:86:1b:d7:a2:07:fe:26:55:9b:99:c6:14:ed:
                    11:4b:ed:ca:ec:d5:2e:9f:57:0b:e4:26:a9:59:c6:
                    d2:3b:3f:d8:f6:90:42:5f:0a:48:1b:76:73:9a:10:
                    10:1f:63:60:99:fb:2c:71:af:be:8d:f1:79:a1:2b:
                    46:21:91:81:9b:e2:72:76:de:51:c6:99:f3:c7:74:
                    79:46:23:5e:e5:69:15:50:15:af:36:b9:48:4e:53:
                    c4:35:57:01:60:32:15:d5:db:59:74:40:66:4f:9d:
                    1e:93
                Exponent: 65537 (0x10001)
        X509v3 extensions:
            X509v3 Key Usage: critical
                Digital Signature, Key Encipherment
            X509v3 Extended Key Usage: 
                TLS Web Client Authentication
            X509v3 Subject Alternative Name: 
                DNS:testuser
            X509v3 Subject Key Identifier: 
                18:82:B3:44:9E:65:5C:13:86:E0:C4:91:BC:76:34:2C:E8:9D:EC:1E
            X509v3 Authority Key Identifier: 
                23:C3:30:3F:9B:FE:A4:20:C2:49:2C:C9:F4:7E:91:84:00:A6:8B:A6
    Signature Algorithm: sha256WithRSAEncryption
    Signature Value:
        1e:6b:52:05:d2:16:72:a8:94:b2:8d:95:f6:5c:10:c7:d2:cb:
        81:42:0a:a6:36:86:8c:7d:0d:07:30:71:b5:bb:57:a8:fe:1a:
        7a:65:f2:3f:c3:35:bb:d3:e4:5e:a2:38:c6:5d:5c:14:dd:f0:
        8b:04:ef:87:73:14:13:83:6f:2e:19:90:67:e0:91:e8:e1:cc:
        05:5a:3e:b4:1a:33:90:b1:8e:1e:fc:0c:60:be:b6:07:d7:6a:
        d8:f8:e3:ca:29:51:60:c7:34:7e:22:0c:69:6d:9f:e2:90:25:
        2e:eb:40:b2:0a:15:bc:50:a9:09:63:54:d6:95:47:d2:02:86:
        a8:04:71:da:46:71:e1:39:b5:fb:0c:37:75:84:33:32:ba:00:
        60:b7:b1:96:dd:64:96:e2:fe:c6:b9:14:04:24:53:c7:3e:f0:
        b3:c2:73:3a:57:39:5b:81:6b:fa:ab:cb:5a:f1:1b:f5:7e:f3:
        70:b3:8b:1e:51:92:f5:ab:1f:31:d5:50:11:e1:ef:70:d2:ca:
        e4:9e:ca:87:6b:e2:56:f0:4a:95:8c:1b:46:fb:2b:6f:f9:9b:
        d4:0b:42:38:a9:6f:87:19:0d:8c:8e:55:c6:21:70:b5:da:16:
        c5:c5:50:0a:21:79:df:5c:1b:aa:36:37:cf:32:9e:2d:8f:70:
        27:ff:2a:3d
-----BEGIN CERTIFICATE-----
MIIDRTCCAi2gAwIBAgIBATANBgkqhkiG9w0BAQsFADArMRIwEAYDVQQKEwlDb2Nr
cm9hY2gxFTATBgNVBAMTDENvY2tyb2FjaCBDQTAeFw0yNTA4MDYxNTE0NTNaFw0y
NjA4MDYxNTE0NTNaMCMxITAfBgNVBAoMGEludGVybmV0IFdpZGdpdHMgUHR5IEx0
ZDCCASIwDQYJKoZIhvcNAQEBBQADggEPADCCAQoCggEBANFqFkkpldtJoZUHKUSS
6l0U7FzqbjwzVBd+v32BVVAXlPb0V09QAvSiQNWTs1GitlQbFN66t7yL7OrYC1tA
KeYBSmOjKCbtVco2dF2N/PD8TEMDj9tN+S1PZa92rXMqKLgOOie1ih2UL3d2CGaK
OWsSJEWKLCZ2JJT9DXdz3ayUaL1qxUEUE0JK+Aqgv6rMnl+uzqXfndOGG9eiB/4m
VZuZxhTtEUvtyuzVLp9XC+QmqVnG0js/2PaQQl8KSBt2c5oQEB9jYJn7LHGvvo3x
eaErRiGRgZvicnbeUcaZ88d0eUYjXuVpFVAVrza5SE5TxDVXAWAyFdXbWXRAZk+d
HpMCAwEAAaN8MHowDgYDVR0PAQH/BAQDAgWgMBMGA1UdJQQMMAoGCCsGAQUFBwMC
MBMGA1UdEQQMMAqCCHRlc3R1c2VyMB0GA1UdDgQWBBQYgrNEnmVcE4bgxJG8djQs
6J3sHjAfBgNVHSMEGDAWgBQjwzA/m/6kIMJJLMn0fpGEAKaLpjANBgkqhkiG9w0B
AQsFAAOCAQEAHmtSBdIWcqiUso2V9lwQx9LLgUIKpjaGjH0NBzBxtbtXqP4aemXy
P8M1u9PkXqI4xl1cFN3wiwTvh3MUE4NvLhmQZ+CR6OHMBVo+tBozkLGOHvwMYL62
B9dq2PjjyilRYMc0fiIMaW2f4pAlLutAsgoVvFCpCWNU1pVH0gKGqARx2kZx4Tm1
+ww3dYQzMroAYLexlt1kluL+xrkUBCRTxz7ws8JzOlc5W4Fr+qvLWvEb9X7zcLOL
HlGS9asfMdVQEeHvcNLK5J7Kh2viVvBKlYwbRvsrb/mb1AtCOKlvhxkNjI5VxiFw
tdoWxcVQCiF531wbqjY3zzKeLY9wJ/8qPQ==
-----END CERTIFICATE-----
