Certificate:
    Data:
        Version: 3 (0x2)
        Serial Number: 3 (0x3)
        Signature Algorithm: sha256WithRSAEncryption
        Issuer: O=Cockroach, CN=Cockroach CA
        Validity
            Not Before: Aug  6 15:14:53 2025 GMT
            Not After : Aug  6 15:14:53 2026 GMT
        Subject: CN=testuser
        Subject Public Key Info:
            Public Key Algorithm: rsaEncryption
                Public-Key: (2048 bit)
                Modulus:
                    00:9b:a1:d5:68:93:13:e3:9d:01:7b:ba:2f:84:c5:
                    88:7d:4c:be:26:51:f2:89:5b:25:6f:ab:de:49:c1:
                    5a:c8:87:c8:8f:20:35:ec:bb:77:f5:80:11:6d:38:
                    84:6c:3c:db:1c:11:f9:08:0f:bb:66:78:88:25:fd:
                    3c:74:19:6e:a5:62:c1:f3:04:63:db:d6:28:ef:59:
                    a7:09:d6:42:04:64:7e:95:5f:32:86:fd:ec:aa:c2:
                    09:1b:30:d9:13:b8:40:7d:fb:09:2b:a9:fa:e4:7e:
                    f9:d0:b8:14:7f:bd:07:e5:e8:ac:51:9d:84:03:34:
                    c5:ee:70:4a:98:d8:90:ff:ba:2c:35:f3:9b:ce:35:
                    da:b8:63:75:30:b6:cc:e4:b1:40:5d:1f:a8:98:61:
                    75:12:3a:43:bd:5c:cd:3e:08:16:d3:40:88:17:fa:
                    ce:3a:96:99:c4:97:ac:e8:3a:85:64:ec:4a:53:d2:
                    5c:93:c3:bb:f8:37:35:31:a8:6e:53:5f:c1:37:8c:
                    ef:00:2b:97:8a:e6:d4:e6:08:a6:39:3d:19:50:2e:
                    0b:47:c3:57:69:1e:31:fd:ee:00:82:1c:bb:37:2d:
                    23:e2:46:4c:4d:1b:f2:2e:cf:7a:58:de:99:e5:b3:
                    ab:a1:4a:2c:8d:69:ad:cc:7b:6c:2e:38:29:7f:ae:
                    71:4b
                Exponent: 65537 (0x10001)
        X509v3 extensions:
            X509v3 Key Usage: critical
                Digital Signature, Key Encipherment
            X509v3 Extended Key Usage: 
                TLS Web Client Authentication
            X509v3 Subject Alternative Name: 
                DNS:testuser
            X509v3 Subject Key Identifier: 
                97:D4:A6:F3:9C:9E:A2:5A:B7:C6:7C:1B:FA:4C:D6:29:62:8F:8B:A3
            X509v3 Authority Key Identifier: 
                23:C3:30:3F:9B:FE:A4:20:C2:49:2C:C9:F4:7E:91:84:00:A6:8B:A6
    Signature Algorithm: sha256WithRSAEncryption
    Signature Value:
        de:dd:12:8e:c8:dc:e8:2e:67:b8:23:f1:71:42:66:76:5b:1a:
        e5:f6:64:6b:95:86:42:90:d5:b1:89:29:43:5e:fc:06:ed:17:
        8b:15:71:f6:5c:23:e4:90:cc:09:56:a0:55:91:46:66:42:1d:
        22:cf:fd:2b:b0:f3:8b:8e:76:64:d7:df:eb:29:49:67:e6:ca:
        7a:f5:9a:04:f1:14:c5:3b:d3:dd:9f:bf:d5:21:5e:a1:05:9a:
        53:77:ba:fa:8c:25:b0:ab:43:d7:94:ee:4f:f9:72:68:70:75:
        cb:29:1c:83:ae:36:b6:4d:8a:b7:d6:71:87:fe:59:a7:50:52:
        34:29:34:c6:64:0b:b8:9f:13:12:10:40:f9:df:f0:ed:dc:46:
        6b:61:c9:61:58:c9:cd:3b:ff:08:58:50:1c:b7:d4:57:60:1d:
        10:3e:05:77:7d:1d:4c:9a:2d:d5:6a:92:98:0b:5c:b0:e4:ed:
        6a:8f:d1:75:30:5f:2d:df:be:30:03:27:6f:31:be:c2:12:54:
        4d:f1:8b:89:81:46:28:50:67:e4:0c:9d:6f:b3:30:60:cb:15:
        23:a6:e8:4c:e9:32:fb:6f:a7:14:8a:66:d3:3b:df:66:97:d2:
        a1:68:51:c5:c3:ad:c0:04:c9:3e:fa:da:37:a7:c0:3f:73:86:
        6d:00:77:31
-----BEGIN CERTIFICATE-----
MIIDNTCCAh2gAwIBAgIBAzANBgkqhkiG9w0BAQsFADArMRIwEAYDVQQKEwlDb2Nr
cm9hY2gxFTATBgNVBAMTDENvY2tyb2FjaCBDQTAeFw0yNTA4MDYxNTE0NTNaFw0y
NjA4MDYxNTE0NTNaMBMxETAPBgNVBAMMCHRlc3R1c2VyMIIBIjANBgkqhkiG9w0B
AQEFAAOCAQ8AMIIBCgKCAQEAm6HVaJMT450Be7ovhMWIfUy+JlHyiVslb6veScFa
yIfIjyA17Lt39YARbTiEbDzbHBH5CA+7ZniIJf08dBlupWLB8wRj29Yo71mnCdZC
BGR+lV8yhv3sqsIJGzDZE7hAffsJK6n65H750LgUf70H5eisUZ2EAzTF7nBKmNiQ
/7osNfObzjXauGN1MLbM5LFAXR+omGF1EjpDvVzNPggW00CIF/rOOpaZxJes6DqF
ZOxKU9Jck8O7+Dc1MahuU1/BN4zvACuXiubU5gimOT0ZUC4LR8NXaR4x/e4Aghy7
Ny0j4kZMTRvyLs96WN6Z5bOroUosjWmtzHtsLjgpf65xSwIDAQABo3wwejAOBgNV
HQ8BAf8EBAMCBaAwEwYDVR0lBAwwCgYIKwYBBQUHAwIwEwYDVR0RBAwwCoIIdGVz
dHVzZXIwHQYDVR0OBBYEFJfUpvOcnqJat8Z8G/pM1ilij4ujMB8GA1UdIwQYMBaA
FCPDMD+b/qQgwkksyfR+kYQApoumMA0GCSqGSIb3DQEBCwUAA4IBAQDe3RKOyNzo
Lme4I/FxQmZ2Wxrl9mRrlYZCkNWxiSlDXvwG7ReLFXH2XCPkkMwJVqBVkUZmQh0i
z/0rsPOLjnZk19/rKUln5sp69ZoE8RTFO9Pdn7/VIV6hBZpTd7r6jCWwq0PXlO5P
+XJocHXLKRyDrja2TYq31nGH/lmnUFI0KTTGZAu4nxMSEED53/Dt3EZrYclhWMnN
O/8IWFAct9RXYB0QPgV3fR1Mmi3VapKYC1yw5O1qj9F1MF8t374wAydvMb7CElRN
8YuJgUYoUGfkDJ1vszBgyxUjpuhM6TL7b6cUimbTO99ml9KhaFHFw63ABMk++to3
p8A/c4ZtAHcx
-----END CERTIFICATE-----
