Certificate:
    Data:
        Version: 3 (0x2)
        Serial Number: 1 (0x1)
        Signature Algorithm: sha256WithRSAEncryption
        Issuer: O=Cockroach, CN=Cockroach CA
        Validity
            Not Before: Jun 13 21:50:39 2025 GMT
            Not After : Jun 13 21:50:39 2026 GMT
        Subject: O=Internet Widgits Pty Ltd
        Subject Public Key Info:
            Public Key Algorithm: rsaEncryption
                Public-Key: (2048 bit)
                Modulus:
                    00:b2:c7:53:02:21:cd:78:c0:c6:7d:30:cf:b6:bc:
                    7c:29:a2:4a:66:a6:6a:92:06:71:62:a0:cf:81:5d:
                    f5:43:80:30:41:ea:3b:d2:d1:22:99:98:0c:b5:a4:
                    4e:44:87:b0:b3:81:f7:2e:2f:ee:d6:d5:6c:07:19:
                    57:76:1d:4d:7d:cf:f8:8d:90:d0:c6:ae:67:15:b6:
                    fd:33:12:e9:bd:57:7c:a1:51:c0:3d:4d:8b:80:1e:
                    8d:97:af:7c:fc:8c:e9:d4:b1:c6:d4:c8:38:99:8e:
                    df:ca:ae:43:ea:1f:ae:af:68:4f:90:69:1d:ad:60:
                    aa:5e:7f:a5:ac:3a:5c:c2:23:8f:4b:6b:b1:e2:63:
                    5c:13:35:e8:03:2b:18:cb:f0:73:26:50:2b:a9:f7:
                    c3:60:9b:58:fa:83:79:cb:d4:29:8e:69:b6:d9:5b:
                    ca:1e:76:16:96:94:a0:45:d7:9f:f7:c2:bd:5b:73:
                    a5:79:75:1c:28:cb:e4:a4:34:a6:2a:21:7c:63:79:
                    a0:9a:4a:1a:39:32:ae:03:5b:2a:04:b9:7b:18:fb:
                    64:f5:ab:18:94:0c:a8:45:fe:12:58:77:84:e2:ce:
                    f5:9d:a3:a2:ec:25:50:6b:b1:7e:74:3d:67:47:56:
                    23:eb:52:45:23:4a:6a:50:d2:29:f5:3a:37:0b:69:
                    d4:a9
                Exponent: 65537 (0x10001)
        X509v3 extensions:
            X509v3 Key Usage: critical
                Digital Signature, Key Encipherment
            X509v3 Extended Key Usage: 
                TLS Web Client Authentication
            X509v3 Subject Alternative Name: 
                DNS:testuser
            X509v3 Subject Key Identifier: 
                36:05:DC:5C:38:78:7D:D5:97:4E:36:F9:93:53:43:B9:15:12:C3:9D
            X509v3 Authority Key Identifier: 
                DD:FC:04:D8:CE:6E:09:23:FB:68:4F:AB:AA:6E:E6:5C:40:A6:48:B8
    Signature Algorithm: sha256WithRSAEncryption
    Signature Value:
        2e:24:4e:6c:1e:7f:1e:ef:61:98:30:96:5a:40:30:07:b8:57:
        21:1f:41:1a:f2:a3:ab:ae:fd:40:c2:b2:4e:85:73:18:4f:ff:
        52:3e:3f:22:34:8e:d6:6f:86:83:f8:1f:fa:ae:b9:06:8a:e4:
        d7:cb:c5:5c:f5:40:10:6c:e1:83:36:3b:8c:1e:70:2e:40:e2:
        dd:d7:75:dc:86:83:36:e5:b4:01:62:c7:12:47:37:3c:9d:df:
        9b:28:9b:07:29:5a:56:9e:47:7b:e3:6a:2c:99:26:14:54:c4:
        33:77:6a:82:b8:4a:3a:e7:fd:66:87:a7:22:6c:e5:d0:3f:89:
        92:09:8a:f9:5f:3d:27:1f:da:5d:6b:e8:01:52:50:d1:48:c6:
        90:ec:d4:3f:55:84:6d:c2:2f:f1:95:fe:7d:ff:3b:bc:65:c3:
        5e:ee:0e:af:fd:62:f7:47:71:94:75:32:19:9d:09:cd:75:fc:
        6e:1e:bd:1f:0a:b4:67:20:c2:35:3a:2b:b2:76:80:bf:a8:f0:
        b0:59:2f:55:73:1d:d0:85:72:07:26:12:f2:65:b1:40:fa:c7:
        f6:21:02:8a:4e:81:af:62:87:99:61:68:33:68:32:58:8d:a5:
        d2:26:a8:d7:8b:7b:75:de:0e:ff:a5:0e:55:9d:8e:1c:99:65:
        d1:59:93:b4
-----BEGIN CERTIFICATE-----
MIIDRTCCAi2gAwIBAgIBATANBgkqhkiG9w0BAQsFADArMRIwEAYDVQQKEwlDb2Nr
cm9hY2gxFTATBgNVBAMTDENvY2tyb2FjaCBDQTAeFw0yNTA2MTMyMTUwMzlaFw0y
NjA2MTMyMTUwMzlaMCMxITAfBgNVBAoMGEludGVybmV0IFdpZGdpdHMgUHR5IEx0
ZDCCASIwDQYJKoZIhvcNAQEBBQADggEPADCCAQoCggEBALLHUwIhzXjAxn0wz7a8
fCmiSmamapIGcWKgz4Fd9UOAMEHqO9LRIpmYDLWkTkSHsLOB9y4v7tbVbAcZV3Yd
TX3P+I2Q0MauZxW2/TMS6b1XfKFRwD1Ni4AejZevfPyM6dSxxtTIOJmO38quQ+of
rq9oT5BpHa1gql5/paw6XMIjj0trseJjXBM16AMrGMvwcyZQK6n3w2CbWPqDecvU
KY5pttlbyh52FpaUoEXXn/fCvVtzpXl1HCjL5KQ0piohfGN5oJpKGjkyrgNbKgS5
exj7ZPWrGJQMqEX+Elh3hOLO9Z2jouwlUGuxfnQ9Z0dWI+tSRSNKalDSKfU6Nwtp
1KkCAwEAAaN8MHowDgYDVR0PAQH/BAQDAgWgMBMGA1UdJQQMMAoGCCsGAQUFBwMC
MBMGA1UdEQQMMAqCCHRlc3R1c2VyMB0GA1UdDgQWBBQ2BdxcOHh91ZdONvmTU0O5
FRLDnTAfBgNVHSMEGDAWgBTd/ATYzm4JI/toT6uqbuZcQKZIuDANBgkqhkiG9w0B
AQsFAAOCAQEALiRObB5/Hu9hmDCWWkAwB7hXIR9BGvKjq679QMKyToVzGE//Uj4/
IjSO1m+Gg/gf+q65Bork18vFXPVAEGzhgzY7jB5wLkDi3dd13IaDNuW0AWLHEkc3
PJ3fmyibBylaVp5He+NqLJkmFFTEM3dqgrhKOuf9ZoenImzl0D+JkgmK+V89Jx/a
XWvoAVJQ0UjGkOzUP1WEbcIv8ZX+ff87vGXDXu4Or/1i90dxlHUyGZ0JzXX8bh69
Hwq0ZyDCNTorsnaAv6jwsFkvVXMd0IVyByYS8mWxQPrH9iECik6Br2KHmWFoM2gy
WI2l0iao14t7dd4O/6UOVZ2OHJll0VmTtA==
-----END CERTIFICATE-----
