Certificate:
    Data:
        Version: 3 (0x2)
        Serial Number: 2 (0x2)
        Signature Algorithm: sha256WithRSAEncryption
        Issuer: O=Cockroach, CN=Cockroach CA
        Validity
            Not Before: Aug  6 15:14:53 2025 GMT
            Not After : Aug  6 15:14:53 2026 GMT
        Subject: CN=testuser
        Subject Public Key Info:
            Public Key Algorithm: rsaEncryption
                Public-Key: (2048 bit)
                Modulus:
                    00:ce:c8:0d:72:b3:3c:78:e8:94:06:11:b3:ba:7d:
                    f0:a2:90:32:d1:0c:32:df:50:f6:9e:11:79:7e:7a:
                    be:f9:83:77:19:5d:96:85:dc:df:86:5c:dd:ad:72:
                    9b:a1:0e:6e:a6:a6:6c:86:c3:9e:e1:06:06:db:72:
                    80:a6:ca:b5:10:ad:f6:7b:51:c0:3b:63:cd:dd:b7:
                    50:7a:26:27:df:11:bf:c3:6f:77:7e:41:48:34:1b:
                    fd:ff:3e:1b:b6:cc:55:f6:18:9b:ea:8b:0b:20:65:
                    24:54:84:0d:e0:b9:ed:16:6f:9d:dc:14:15:2b:b1:
                    d2:bc:96:c7:a7:b7:b7:17:eb:92:0f:1c:a9:6e:13:
                    e5:4b:78:c0:c5:53:33:f2:fc:ee:bc:8d:66:62:3b:
                    d8:aa:83:90:97:71:0d:4e:09:7d:46:e0:78:b1:fa:
                    6e:a7:45:3b:58:51:e5:81:90:9f:50:27:83:9d:4d:
                    64:a7:f1:c2:4f:ec:e6:a4:bb:0e:7f:26:54:d2:2a:
                    92:8f:e3:5c:c2:4a:8e:89:b3:96:fe:45:ce:38:ff:
                    10:48:f1:2c:f8:41:49:94:89:6d:0e:b7:63:5e:ff:
                    c5:43:90:31:3f:a4:80:64:bb:58:0e:29:1b:f6:2e:
                    a6:c4:a0:dc:3f:c5:9f:cf:ce:ac:e1:2e:91:d4:92:
                    a3:5d
                Exponent: 65537 (0x10001)
        X509v3 extensions:
            X509v3 Key Usage: critical
                Digital Signature, Key Encipherment
            X509v3 Extended Key Usage: 
                TLS Web Client Authentication
            X509v3 Subject Key Identifier: 
                C3:D3:7F:33:E9:F4:C1:80:2F:B1:47:69:51:17:42:8A:15:90:EE:4F
            X509v3 Authority Key Identifier: 
                23:C3:30:3F:9B:FE:A4:20:C2:49:2C:C9:F4:7E:91:84:00:A6:8B:A6
    Signature Algorithm: sha256WithRSAEncryption
    Signature Value:
        da:b7:6a:cc:6f:9c:a3:ad:2d:81:15:18:9b:46:23:74:f6:81:
        17:ab:4b:e2:38:c6:50:0e:cb:88:68:f6:40:cd:12:6c:c1:f5:
        77:0b:73:14:32:cc:42:6e:69:74:72:1f:42:0e:84:95:39:8f:
        f1:20:c9:a7:4e:aa:3a:b2:7a:cb:53:c9:ec:fe:49:a9:8b:af:
        70:7e:1f:f8:24:a9:80:06:9a:0b:87:f7:c1:d2:43:8a:a0:b0:
        3a:66:8c:7d:4d:a5:d1:1f:33:4b:ce:25:66:43:82:15:da:35:
        c8:4c:30:2b:6c:8b:61:f5:bc:27:6a:4a:9d:00:bd:f6:8a:05:
        93:c8:7e:ba:ab:b1:d9:74:d1:37:e5:8c:3e:52:3a:ab:02:3e:
        21:3b:11:8e:a3:73:8f:d1:32:74:a6:da:96:e2:f9:f4:9b:f6:
        d7:7c:7d:38:fb:e3:fc:bd:a5:09:a8:f5:12:5c:bc:4b:d9:53:
        26:bf:e1:73:4c:86:d4:77:07:4f:f8:e5:50:4d:be:fd:cd:f1:
        4c:c5:7a:06:bc:b8:13:4f:45:52:ae:ee:35:c0:c3:fe:0a:af:
        a5:2c:ba:ae:62:68:5e:63:66:59:60:62:0b:2f:df:c1:a1:09:
        da:06:97:ab:39:3f:81:a1:e2:01:f3:90:cb:78:2d:06:0c:8f:
        f1:1f:f6:08
-----BEGIN CERTIFICATE-----
MIIDIDCCAgigAwIBAgIBAjANBgkqhkiG9w0BAQsFADArMRIwEAYDVQQKEwlDb2Nr
cm9hY2gxFTATBgNVBAMTDENvY2tyb2FjaCBDQTAeFw0yNTA4MDYxNTE0NTNaFw0y
NjA4MDYxNTE0NTNaMBMxETAPBgNVBAMMCHRlc3R1c2VyMIIBIjANBgkqhkiG9w0B
AQEFAAOCAQ8AMIIBCgKCAQEAzsgNcrM8eOiUBhGzun3wopAy0Qwy31D2nhF5fnq+
+YN3GV2WhdzfhlzdrXKboQ5upqZshsOe4QYG23KApsq1EK32e1HAO2PN3bdQeiYn
3xG/w293fkFINBv9/z4btsxV9hib6osLIGUkVIQN4LntFm+d3BQVK7HSvJbHp7e3
F+uSDxypbhPlS3jAxVMz8vzuvI1mYjvYqoOQl3ENTgl9RuB4sfpup0U7WFHlgZCf
UCeDnU1kp/HCT+zmpLsOfyZU0iqSj+NcwkqOibOW/kXOOP8QSPEs+EFJlIltDrdj
Xv/FQ5AxP6SAZLtYDikb9i6mxKDcP8Wfz86s4S6R1JKjXQIDAQABo2cwZTAOBgNV
HQ8BAf8EBAMCBaAwEwYDVR0lBAwwCgYIKwYBBQUHAwIwHQYDVR0OBBYEFMPTfzPp
9MGAL7FHaVEXQooVkO5PMB8GA1UdIwQYMBaAFCPDMD+b/qQgwkksyfR+kYQApoum
MA0GCSqGSIb3DQEBCwUAA4IBAQDat2rMb5yjrS2BFRibRiN09oEXq0viOMZQDsuI
aPZAzRJswfV3C3MUMsxCbml0ch9CDoSVOY/xIMmnTqo6snrLU8ns/kmpi69wfh/4
JKmABpoLh/fB0kOKoLA6Zox9TaXRHzNLziVmQ4IV2jXITDArbIth9bwnakqdAL32
igWTyH66q7HZdNE35Yw+UjqrAj4hOxGOo3OP0TJ0ptqW4vn0m/bXfH04++P8vaUJ
qPUSXLxL2VMmv+FzTIbUdwdP+OVQTb79zfFMxXoGvLgTT0VSru41wMP+Cq+lLLqu
YmheY2ZZYGILL9/BoQnaBperOT+BoeIB85DLeC0GDI/xH/YI
-----END CERTIFICATE-----
