Certificate:
    Data:
        Version: 3 (0x2)
        Serial Number: 3 (0x3)
        Signature Algorithm: sha256WithRSAEncryption
        Issuer: O=Cockroach, CN=Cockroach CA
        Validity
            Not Before: Apr 21 18:56:00 2025 GMT
            Not After : Apr 21 18:56:00 2026 GMT
        Subject: CN=testuser
        Subject Public Key Info:
            Public Key Algorithm: rsaEncryption
                Public-Key: (2048 bit)
                Modulus:
                    00:ac:e2:71:52:f2:ae:a1:4e:55:97:92:74:66:85:
                    32:4a:ad:84:d1:93:60:00:e6:f8:79:90:87:81:6e:
                    eb:cd:6c:87:9a:11:a8:ee:1c:72:28:bc:0f:bd:1c:
                    e2:66:45:91:ec:c4:a1:5f:65:d5:39:9a:c4:ce:2c:
                    0d:f8:bb:33:ca:1c:23:35:3a:53:ef:bc:57:fd:30:
                    35:a6:c0:d3:4d:d4:e0:2b:ec:7a:b5:3d:b6:20:af:
                    f7:06:2b:ca:52:19:30:89:a8:f5:6e:79:61:60:47:
                    2d:00:f8:72:13:9b:7d:d0:b3:c2:61:72:05:da:72:
                    28:f5:b3:06:b2:fa:d8:6d:88:ba:d4:86:b3:73:11:
                    68:35:bf:a2:18:38:7f:6b:59:06:bb:6d:47:0a:e7:
                    e2:93:af:a3:98:fc:cb:08:36:ce:3a:b2:09:8f:5e:
                    a9:90:05:39:a8:47:cc:99:2c:5f:cd:fb:1f:fb:e0:
                    bd:1d:c3:e7:03:45:65:ed:27:55:b0:6d:aa:41:66:
                    09:3e:18:59:90:bc:fa:8e:af:bb:c5:b5:ab:0d:0e:
                    40:6a:ff:84:22:fd:09:e2:a1:bb:ee:d1:5e:66:88:
                    93:ce:be:92:53:35:26:86:17:89:48:c5:3b:fe:41:
                    8d:92:65:65:6f:f0:95:09:4e:b3:f5:5c:7f:31:d3:
                    43:33
                Exponent: 65537 (0x10001)
        X509v3 extensions:
            X509v3 Key Usage: critical
                Digital Signature, Key Encipherment
            X509v3 Extended Key Usage: 
                TLS Web Client Authentication
            X509v3 Subject Alternative Name: 
                DNS:testuser
            X509v3 Subject Key Identifier: 
                4F:D5:00:74:FC:47:B5:55:6B:B7:65:E8:E1:17:67:BC:FE:53:A4:5A
            X509v3 Authority Key Identifier: 
                57:FB:6D:4E:BC:CB:3D:00:69:E7:79:4D:E6:EB:5A:10:AD:00:CD:84
    Signature Algorithm: sha256WithRSAEncryption
    Signature Value:
        ab:50:f0:34:eb:8c:05:5a:43:7c:e8:9f:14:02:6e:a4:61:61:
        ce:18:58:d5:52:2b:8f:49:ac:50:95:90:c3:86:4b:05:66:e5:
        8b:6d:4d:f3:de:f4:fd:e8:44:fc:b8:07:af:16:c5:9f:45:7c:
        06:09:9e:84:56:db:e8:2a:1a:54:e7:f4:3d:65:26:c1:29:3f:
        75:54:60:d0:5e:b5:4f:ff:b0:90:37:7e:f1:4b:ab:69:5b:49:
        2b:ae:f9:42:b1:c9:ce:e0:90:61:c3:82:92:41:42:6f:fc:bd:
        c1:fe:48:c8:ac:f3:48:86:f1:84:75:7f:09:a6:1d:67:8b:fe:
        32:95:da:47:18:b8:8d:01:61:ca:a1:5b:d8:ca:5e:ed:78:47:
        21:4f:cc:4b:5d:91:4f:c3:94:ac:ab:04:98:8a:12:f3:9b:4c:
        27:d5:28:e0:40:f1:e1:c7:59:4b:a0:cd:a4:39:b8:6f:b5:3e:
        5d:e4:a3:fc:df:3e:91:4a:cb:47:40:c3:75:35:fe:47:66:13:
        93:fe:6d:8e:7e:78:aa:46:bb:f3:54:59:35:ff:aa:d9:0b:7e:
        47:52:b3:03:f5:c3:e3:8c:9d:25:b7:d6:a2:1f:ba:ed:7d:9e:
        ee:3a:e4:cd:ba:21:bc:05:78:91:69:f5:63:64:9f:56:d0:fa:
        eb:4a:28:bb
-----BEGIN CERTIFICATE-----
MIIDNTCCAh2gAwIBAgIBAzANBgkqhkiG9w0BAQsFADArMRIwEAYDVQQKEwlDb2Nr
cm9hY2gxFTATBgNVBAMTDENvY2tyb2FjaCBDQTAeFw0yNTA0MjExODU2MDBaFw0y
NjA0MjExODU2MDBaMBMxETAPBgNVBAMMCHRlc3R1c2VyMIIBIjANBgkqhkiG9w0B
AQEFAAOCAQ8AMIIBCgKCAQEArOJxUvKuoU5Vl5J0ZoUySq2E0ZNgAOb4eZCHgW7r
zWyHmhGo7hxyKLwPvRziZkWR7MShX2XVOZrEziwN+LszyhwjNTpT77xX/TA1psDT
TdTgK+x6tT22IK/3BivKUhkwiaj1bnlhYEctAPhyE5t90LPCYXIF2nIo9bMGsvrY
bYi61IazcxFoNb+iGDh/a1kGu21HCufik6+jmPzLCDbOOrIJj16pkAU5qEfMmSxf
zfsf++C9HcPnA0Vl7SdVsG2qQWYJPhhZkLz6jq+7xbWrDQ5Aav+EIv0J4qG77tFe
ZoiTzr6SUzUmhheJSMU7/kGNkmVlb/CVCU6z9Vx/MdNDMwIDAQABo3wwejAOBgNV
HQ8BAf8EBAMCBaAwEwYDVR0lBAwwCgYIKwYBBQUHAwIwEwYDVR0RBAwwCoIIdGVz
dHVzZXIwHQYDVR0OBBYEFE/VAHT8R7VVa7dl6OEXZ7z+U6RaMB8GA1UdIwQYMBaA
FFf7bU68yz0Aaed5TebrWhCtAM2EMA0GCSqGSIb3DQEBCwUAA4IBAQCrUPA064wF
WkN86J8UAm6kYWHOGFjVUiuPSaxQlZDDhksFZuWLbU3z3vT96ET8uAevFsWfRXwG
CZ6EVtvoKhpU5/Q9ZSbBKT91VGDQXrVP/7CQN37xS6tpW0krrvlCscnO4JBhw4KS
QUJv/L3B/kjIrPNIhvGEdX8Jph1ni/4yldpHGLiNAWHKoVvYyl7teEchT8xLXZFP
w5SsqwSYihLzm0wn1SjgQPHhx1lLoM2kObhvtT5d5KP83z6RSstHQMN1Nf5HZhOT
/m2OfniqRrvzVFk1/6rZC35HUrMD9cPjjJ0lt9aiH7rtfZ7uOuTNuiG8BXiRafVj
ZJ9W0PrrSii7
-----END CERTIFICATE-----
