Certificate:
    Data:
        Version: 3 (0x2)
        Serial Number: 2 (0x2)
        Signature Algorithm: sha256WithRSAEncryption
        Issuer: O=Cockroach, CN=Cockroach CA
        Validity
            Not Before: Jun 17 22:15:34 2025 GMT
            Not After : Jun 17 22:15:34 2026 GMT
        Subject: CN=testuser
        Subject Public Key Info:
            Public Key Algorithm: rsaEncryption
                Public-Key: (2048 bit)
                Modulus:
                    00:b2:d8:43:9d:51:30:d6:11:08:94:74:57:cd:2f:
                    8b:70:ec:5a:c2:c1:d2:e6:b7:85:3f:4a:4d:67:7c:
                    3a:40:a5:d6:d3:ed:88:03:8c:e7:3b:df:bc:7a:70:
                    18:f5:9d:1a:8e:26:49:fd:04:06:27:75:32:89:78:
                    51:b1:35:a8:fe:3d:9c:6f:18:89:8c:4b:69:e0:9b:
                    97:6f:4a:5a:bb:41:67:c7:46:ee:94:fe:a3:14:d4:
                    79:1b:a4:80:c2:50:c9:c8:82:c1:32:17:64:a7:15:
                    4c:50:fa:54:cf:82:fc:e0:38:cf:05:84:70:bf:cb:
                    d8:0e:3b:7a:8a:19:22:be:5c:fd:68:f9:a3:30:b0:
                    42:52:b6:6d:a8:43:33:50:61:17:8c:83:30:c2:16:
                    99:6e:a8:8d:34:fa:94:de:82:b3:33:7d:58:07:a3:
                    c1:ac:5f:b3:53:1f:36:76:af:93:f2:3e:18:7c:51:
                    02:4f:d7:08:19:18:13:27:7d:25:67:f5:8c:1c:1e:
                    7f:43:d5:7c:cf:be:9f:70:a7:9a:36:1f:21:34:40:
                    6c:c8:1f:a1:3a:3b:1f:91:cf:5b:04:c8:08:66:96:
                    51:fe:27:56:48:64:e9:50:16:e7:29:74:25:59:7e:
                    0f:1f:eb:9b:93:03:4b:a3:11:84:c2:42:0e:d4:03:
                    4a:17
                Exponent: 65537 (0x10001)
        X509v3 extensions:
            X509v3 Key Usage: critical
                Digital Signature, Key Encipherment
            X509v3 Extended Key Usage: 
                TLS Web Client Authentication
            X509v3 Subject Key Identifier: 
                47:47:8F:33:D2:90:9A:20:7F:90:C3:D5:AD:B9:A5:CF:65:47:FB:CB
            X509v3 Authority Key Identifier: 
                95:08:BB:F0:D5:A6:E3:13:F9:E9:63:CD:74:51:E7:20:F3:2F:0C:87
    Signature Algorithm: sha256WithRSAEncryption
    Signature Value:
        38:3f:d4:ba:75:b1:28:a9:1d:3b:8f:97:72:92:ba:ac:c2:09:
        8c:16:42:16:c9:9d:97:cc:01:1f:3f:e9:a6:43:70:7b:a2:f3:
        66:8b:3a:f7:6e:67:6a:e6:4e:34:b2:67:03:92:e0:20:29:38:
        20:a3:8c:e4:6d:38:bf:17:da:77:58:79:7f:cb:36:53:de:40:
        b9:52:64:da:72:bd:3e:f0:5a:69:c8:3b:76:29:22:84:0a:79:
        ec:ce:4c:ce:8b:aa:18:6a:b8:d0:6f:6f:1a:c9:50:44:00:9e:
        49:6a:a6:7e:2e:74:e0:e3:33:24:32:e9:8c:4b:88:d2:34:11:
        4b:38:ac:71:f9:03:27:d1:9e:f0:4f:25:11:94:1a:cd:18:09:
        23:4a:5b:6a:12:9a:76:5a:74:7c:2d:17:89:a6:e7:aa:dc:4a:
        b8:18:54:de:e9:83:d6:3d:de:7f:95:65:ae:a8:f8:2b:41:e4:
        24:82:8b:c7:b0:55:12:4b:c5:a2:b3:58:ac:8f:d9:62:e6:18:
        8f:12:3a:6b:31:cd:6d:1d:8a:98:b1:bf:f9:d6:36:f2:3a:da:
        5b:f8:71:c1:6a:eb:20:68:d9:df:87:f1:2b:6d:fd:fc:b1:23:
        c0:ca:cf:f7:1f:f8:5b:ed:89:ca:0b:22:9d:cf:04:19:bc:a2:
        cb:9b:43:90
-----BEGIN CERTIFICATE-----
MIIDIDCCAgigAwIBAgIBAjANBgkqhkiG9w0BAQsFADArMRIwEAYDVQQKEwlDb2Nr
cm9hY2gxFTATBgNVBAMTDENvY2tyb2FjaCBDQTAeFw0yNTA2MTcyMjE1MzRaFw0y
NjA2MTcyMjE1MzRaMBMxETAPBgNVBAMMCHRlc3R1c2VyMIIBIjANBgkqhkiG9w0B
AQEFAAOCAQ8AMIIBCgKCAQEAsthDnVEw1hEIlHRXzS+LcOxawsHS5reFP0pNZ3w6
QKXW0+2IA4znO9+8enAY9Z0ajiZJ/QQGJ3UyiXhRsTWo/j2cbxiJjEtp4JuXb0pa
u0Fnx0bulP6jFNR5G6SAwlDJyILBMhdkpxVMUPpUz4L84DjPBYRwv8vYDjt6ihki
vlz9aPmjMLBCUrZtqEMzUGEXjIMwwhaZbqiNNPqU3oKzM31YB6PBrF+zUx82dq+T
8j4YfFECT9cIGRgTJ30lZ/WMHB5/Q9V8z76fcKeaNh8hNEBsyB+hOjsfkc9bBMgI
ZpZR/idWSGTpUBbnKXQlWX4PH+ubkwNLoxGEwkIO1ANKFwIDAQABo2cwZTAOBgNV
HQ8BAf8EBAMCBaAwEwYDVR0lBAwwCgYIKwYBBQUHAwIwHQYDVR0OBBYEFEdHjzPS
kJogf5DD1a25pc9lR/vLMB8GA1UdIwQYMBaAFJUIu/DVpuMT+eljzXRR5yDzLwyH
MA0GCSqGSIb3DQEBCwUAA4IBAQA4P9S6dbEoqR07j5dykrqswgmMFkIWyZ2XzAEf
P+mmQ3B7ovNmizr3bmdq5k40smcDkuAgKTggo4zkbTi/F9p3WHl/yzZT3kC5UmTa
cr0+8FppyDt2KSKECnnszkzOi6oYarjQb28ayVBEAJ5JaqZ+LnTg4zMkMumMS4jS
NBFLOKxx+QMn0Z7wTyURlBrNGAkjSltqEpp2WnR8LReJpueq3Eq4GFTe6YPWPd5/
lWWuqPgrQeQkgovHsFUSS8Wis1isj9li5hiPEjprMc1tHYqYsb/51jbyOtpb+HHB
ausgaNnfh/Erbf38sSPAys/3H/hb7YnKCyKdzwQZvKLLm0OQ
-----END CERTIFICATE-----
